target datalayout = "e-m:e-p270:32:32-p271:32:32-p272:64:64-i64:64-i128:128-f80:128-n8:16:32:64-S128"
target triple = "x86_64-pc-linux-gnu"

%"class.llvm::VersionTuple" = type { i64, i64 }
%"class.std::__cxx11::basic_string" = type { %"struct.std::__cxx11::basic_string<char>::_Alloc_hider", i64, %union.anon }
%"struct.std::__cxx11::basic_string<char>::_Alloc_hider" = type { ptr }
%union.anon = type { i64, [8 x i8] }
%"class.clang::LangOptionsBase" = type <{ i64, i64, i64, i64, i64, i64, i64, i64, i64, i64, i64, i64, i64, i64, i64, i64, i64, i64, i64, i64, i64, i64, i64, i64, i64, i16, [2 x i8] }>
%"class.llvm::StringRef" = type { ptr, i64 }
%"class.llvm::raw_string_ostream" = type { %"class.llvm::raw_ostream", ptr }
%"class.llvm::raw_ostream" = type { ptr, i32, ptr, ptr, ptr, i8, i32 }

@.str = private unnamed_addr constant [15 x i8] c"C++ for OpenCL\00", align 1
@.str.1 = private unnamed_addr constant [9 x i8] c"OpenCL C\00", align 1
@.str.2 = private unnamed_addr constant [10 x i8] c" version \00", align 1
@_ZTVN4llvm18raw_string_ostreamE = external unnamed_addr constant { [15 x ptr] }, align 8
@_ZTVN4llvm11raw_ostreamE = external unnamed_addr constant { [15 x ptr] }, align 8

; Function Attrs: mustprogress nounwind uwtable
define linkonce_odr hidden noundef ptr @_ZNK4llvm9StringRef4dataEv(ptr noundef nonnull align 8 dereferenceable(16) %0) #0 comdat align 2 {
  %2 = alloca ptr, align 8
  store ptr %0, ptr %2, align 8
  %3 = load ptr, ptr %2, align 8
  %4 = getelementptr inbounds nuw %"class.llvm::StringRef", ptr %3, i32 0, i32 0
  %5 = load ptr, ptr %4, align 8
  ret ptr %5
}

; Function Attrs: mustprogress nounwind uwtable
define linkonce_odr hidden noundef i64 @_ZNK4llvm9StringRef4sizeEv(ptr noundef nonnull align 8 dereferenceable(16) %0) #0 comdat align 2 {
  %2 = alloca ptr, align 8
  store ptr %0, ptr %2, align 8
  %3 = load ptr, ptr %2, align 8
  %4 = getelementptr inbounds nuw %"class.llvm::StringRef", ptr %3, i32 0, i32 1
  %5 = load i64, ptr %4, align 8
  ret i64 %5
}

; Function Attrs: mustprogress nounwind uwtable
define linkonce_odr hidden noundef i64 @_ZNSt11char_traitsIcE6lengthEPKc(ptr noundef %0) #0 comdat align 2 {
  %2 = alloca ptr, align 8
  store ptr %0, ptr %2, align 8
  %3 = load ptr, ptr %2, align 8
  %4 = call i64 @strlen(ptr noundef %3) #8
  ret i64 %4
}

; Function Attrs: mustprogress nounwind uwtable
define linkonce_odr hidden void @_ZN4llvm11raw_ostream5flushEv(ptr noundef nonnull align 8 dereferenceable(48) %0) #0 comdat align 2 {
  %2 = alloca ptr, align 8
  store ptr %0, ptr %2, align 8
  %3 = load ptr, ptr %2, align 8
  %4 = getelementptr inbounds nuw %"class.llvm::raw_ostream", ptr %3, i32 0, i32 4
  %5 = load ptr, ptr %4, align 8
  %6 = getelementptr inbounds nuw %"class.llvm::raw_ostream", ptr %3, i32 0, i32 2
  %7 = load ptr, ptr %6, align 8
  %8 = icmp ne ptr %5, %7
  br i1 %8, label %9, label %10

9:                                                ; preds = %1
  call void @_ZN4llvm11raw_ostream14flush_nonemptyEv(ptr noundef nonnull align 8 dereferenceable(48) %3)
  br label %10

10:                                               ; preds = %9, %1
  ret void
}

; Function Attrs: mustprogress nounwind uwtable
define linkonce_odr hidden void @_ZN4llvm12VersionTupleC2Ejj(ptr noundef nonnull align 4 dereferenceable(16) %0, i32 noundef %1, i32 noundef %2) unnamed_addr #0 comdat align 2 {
  %4 = alloca ptr, align 8
  %5 = alloca i32, align 4
  %6 = alloca i32, align 4
  store ptr %0, ptr %4, align 8
  store i32 %1, ptr %5, align 4
  store i32 %2, ptr %6, align 4
  %7 = load ptr, ptr %4, align 8
  %8 = load i32, ptr %5, align 4
  %9 = zext i32 %8 to i64
  %10 = load i64, ptr %7, align 4
  %11 = and i64 %9, 4294967295
  %12 = and i64 %10, -4294967296
  %13 = or i64 %12, %11
  store i64 %13, ptr %7, align 4
  %14 = load i32, ptr %6, align 4
  %15 = zext i32 %14 to i64
  %16 = load i64, ptr %7, align 4
  %17 = and i64 %15, 2147483647
  %18 = shl i64 %17, 32
  %19 = and i64 %16, -9223372032559808513
  %20 = or i64 %19, %18
  store i64 %20, ptr %7, align 4
  %21 = load i64, ptr %7, align 4
  %22 = and i64 %21, 9223372036854775807
  %23 = or i64 %22, -9223372036854775808
  store i64 %23, ptr %7, align 4
  %24 = getelementptr inbounds nuw %"class.llvm::VersionTuple", ptr %7, i32 0, i32 1
  %25 = load i64, ptr %24, align 4
  %26 = and i64 %25, -2147483648
  %27 = or i64 %26, 0
  store i64 %27, ptr %24, align 4
  %28 = getelementptr inbounds nuw %"class.llvm::VersionTuple", ptr %7, i32 0, i32 1
  %29 = load i64, ptr %28, align 4
  %30 = and i64 %29, -2147483649
  %31 = or i64 %30, 0
  store i64 %31, ptr %28, align 4
  %32 = getelementptr inbounds nuw %"class.llvm::VersionTuple", ptr %7, i32 0, i32 1
  %33 = load i64, ptr %32, align 4
  %34 = and i64 %33, -9223372032559808513
  %35 = or i64 %34, 0
  store i64 %35, ptr %32, align 4
  %36 = getelementptr inbounds nuw %"class.llvm::VersionTuple", ptr %7, i32 0, i32 1
  %37 = load i64, ptr %36, align 4
  %38 = and i64 %37, 9223372036854775807
  %39 = or i64 %38, 0
  store i64 %39, ptr %36, align 4
  ret void
}

; Function Attrs: mustprogress nounwind uwtable
define linkonce_odr hidden void @_ZN4llvm12VersionTupleC2Ej(ptr noundef nonnull align 4 dereferenceable(16) %0, i32 noundef %1) unnamed_addr #0 comdat align 2 {
  %3 = alloca ptr, align 8
  %4 = alloca i32, align 4
  store ptr %0, ptr %3, align 8
  store i32 %1, ptr %4, align 4
  %5 = load ptr, ptr %3, align 8
  %6 = load i32, ptr %4, align 4
  %7 = zext i32 %6 to i64
  %8 = load i64, ptr %5, align 4
  %9 = and i64 %7, 4294967295
  %10 = and i64 %8, -4294967296
  %11 = or i64 %10, %9
  store i64 %11, ptr %5, align 4
  %12 = load i64, ptr %5, align 4
  %13 = and i64 %12, -9223372032559808513
  %14 = or i64 %13, 0
  store i64 %14, ptr %5, align 4
  %15 = load i64, ptr %5, align 4
  %16 = and i64 %15, 9223372036854775807
  %17 = or i64 %16, 0
  store i64 %17, ptr %5, align 4
  %18 = getelementptr inbounds nuw %"class.llvm::VersionTuple", ptr %5, i32 0, i32 1
  %19 = load i64, ptr %18, align 4
  %20 = and i64 %19, -2147483648
  %21 = or i64 %20, 0
  store i64 %21, ptr %18, align 4
  %22 = getelementptr inbounds nuw %"class.llvm::VersionTuple", ptr %5, i32 0, i32 1
  %23 = load i64, ptr %22, align 4
  %24 = and i64 %23, -2147483649
  %25 = or i64 %24, 0
  store i64 %25, ptr %22, align 4
  %26 = getelementptr inbounds nuw %"class.llvm::VersionTuple", ptr %5, i32 0, i32 1
  %27 = load i64, ptr %26, align 4
  %28 = and i64 %27, -9223372032559808513
  %29 = or i64 %28, 0
  store i64 %29, ptr %26, align 4
  %30 = getelementptr inbounds nuw %"class.llvm::VersionTuple", ptr %5, i32 0, i32 1
  %31 = load i64, ptr %30, align 4
  %32 = and i64 %31, 9223372036854775807
  %33 = or i64 %32, 0
  store i64 %33, ptr %30, align 4
  ret void
}

; Function Attrs: mustprogress nounwind uwtable
define linkonce_odr hidden noundef nonnull align 8 dereferenceable(48) ptr @_ZN4llvm11raw_ostreamlsENS_9StringRefE(ptr noundef nonnull align 8 dereferenceable(48) %0, ptr %1, i64 %2) #0 comdat align 2 {
  %4 = alloca ptr, align 8
  %5 = alloca %"class.llvm::StringRef", align 8
  %6 = alloca ptr, align 8
  %7 = alloca i64, align 8
  %8 = getelementptr inbounds nuw { ptr, i64 }, ptr %5, i32 0, i32 0
  store ptr %1, ptr %8, align 8
  %9 = getelementptr inbounds nuw { ptr, i64 }, ptr %5, i32 0, i32 1
  store i64 %2, ptr %9, align 8
  store ptr %0, ptr %6, align 8
  %10 = load ptr, ptr %6, align 8
  %11 = call noundef i64 @_ZNK4llvm9StringRef4sizeEv(ptr noundef nonnull align 8 dereferenceable(16) %5)
  store i64 %11, ptr %7, align 8
  %12 = load i64, ptr %7, align 8
  %13 = getelementptr inbounds nuw %"class.llvm::raw_ostream", ptr %10, i32 0, i32 3
  %14 = load ptr, ptr %13, align 8
  %15 = getelementptr inbounds nuw %"class.llvm::raw_ostream", ptr %10, i32 0, i32 4
  %16 = load ptr, ptr %15, align 8
  %17 = ptrtoint ptr %14 to i64
  %18 = ptrtoint ptr %16 to i64
  %19 = sub i64 %17, %18
  %20 = icmp ugt i64 %12, %19
  br i1 %20, label %21, label %25

21:                                               ; preds = %3
  %22 = call noundef ptr @_ZNK4llvm9StringRef4dataEv(ptr noundef nonnull align 8 dereferenceable(16) %5)
  %23 = load i64, ptr %7, align 8
  %24 = call noundef nonnull align 8 dereferenceable(48) ptr @_ZN4llvm11raw_ostream5writeEPKcm(ptr noundef nonnull align 8 dereferenceable(48) %10, ptr noundef %22, i64 noundef %23)
  store ptr %24, ptr %4, align 8
  br label %38

25:                                               ; preds = %3
  %26 = load i64, ptr %7, align 8
  %27 = icmp ne i64 %26, 0
  br i1 %27, label %28, label %37

28:                                               ; preds = %25
  %29 = getelementptr inbounds nuw %"class.llvm::raw_ostream", ptr %10, i32 0, i32 4
  %30 = load ptr, ptr %29, align 8
  %31 = call noundef ptr @_ZNK4llvm9StringRef4dataEv(ptr noundef nonnull align 8 dereferenceable(16) %5)
  %32 = load i64, ptr %7, align 8
  call void @llvm.memcpy.p0.p0.i64(ptr align 1 %30, ptr align 1 %31, i64 %32, i1 false)
  %33 = load i64, ptr %7, align 8
  %34 = getelementptr inbounds nuw %"class.llvm::raw_ostream", ptr %10, i32 0, i32 4
  %35 = load ptr, ptr %34, align 8
  %36 = getelementptr inbounds i8, ptr %35, i64 %33
  store ptr %36, ptr %34, align 8
  br label %37

37:                                               ; preds = %28, %25
  store ptr %10, ptr %4, align 8
  br label %38

38:                                               ; preds = %37, %21
  %39 = load ptr, ptr %4, align 8
  ret ptr %39
}

; Function Attrs: mustprogress nounwind uwtable
define linkonce_odr hidden void @_ZN4llvm9StringRefC2EPKc(ptr noundef nonnull align 8 dereferenceable(16) %0, ptr noundef %1) unnamed_addr #0 comdat align 2 {
  %3 = alloca ptr, align 8
  %4 = alloca ptr, align 8
  store ptr %0, ptr %3, align 8
  store ptr %1, ptr %4, align 8
  %5 = load ptr, ptr %3, align 8
  %6 = getelementptr inbounds nuw %"class.llvm::StringRef", ptr %5, i32 0, i32 0
  %7 = load ptr, ptr %4, align 8
  store ptr %7, ptr %6, align 8
  %8 = getelementptr inbounds nuw %"class.llvm::StringRef", ptr %5, i32 0, i32 1
  %9 = load ptr, ptr %4, align 8
  %10 = icmp ne ptr %9, null
  br i1 %10, label %11, label %14

11:                                               ; preds = %2
  %12 = load ptr, ptr %4, align 8
  %13 = call noundef i64 @_ZNSt11char_traitsIcE6lengthEPKc(ptr noundef %12)
  br label %15

14:                                               ; preds = %2
  br label %15

15:                                               ; preds = %14, %11
  %16 = phi i64 [ %13, %11 ], [ 0, %14 ]
  store i64 %16, ptr %8, align 8
  ret void
}

; Function Attrs: mustprogress nounwind uwtable
define linkonce_odr hidden void @_ZN4llvm11raw_ostream13SetUnbufferedEv(ptr noundef nonnull align 8 dereferenceable(48) %0) #0 comdat align 2 {
  %2 = alloca ptr, align 8
  store ptr %0, ptr %2, align 8
  %3 = load ptr, ptr %2, align 8
  call void @_ZN4llvm11raw_ostream5flushEv(ptr noundef nonnull align 8 dereferenceable(48) %3)
  call void @_ZN4llvm11raw_ostream16SetBufferAndModeEPcmNS0_10BufferKindE(ptr noundef nonnull align 8 dereferenceable(48) %3, ptr noundef null, i64 noundef 0, i32 noundef 0)
  ret void
}

; Function Attrs: mustprogress nounwind uwtable
define linkonce_odr hidden void @_ZN4llvm11raw_ostreamC2EbNS0_11OStreamKindE(ptr noundef nonnull align 8 dereferenceable(48) %0, i1 noundef zeroext %1, i32 noundef %2) unnamed_addr #0 comdat align 2 {
  %4 = alloca ptr, align 8
  %5 = alloca i8, align 1
  %6 = alloca i32, align 4
  store ptr %0, ptr %4, align 8
  %7 = zext i1 %1 to i8
  store i8 %7, ptr %5, align 1
  store i32 %2, ptr %6, align 4
  %8 = load ptr, ptr %4, align 8
  store ptr getelementptr inbounds inrange(-16, 104) ({ [15 x ptr] }, ptr @_ZTVN4llvm11raw_ostreamE, i32 0, i32 0, i32 2), ptr %8, align 8
  %9 = getelementptr inbounds nuw %"class.llvm::raw_ostream", ptr %8, i32 0, i32 1
  %10 = load i32, ptr %6, align 4
  store i32 %10, ptr %9, align 8
  %11 = getelementptr inbounds nuw %"class.llvm::raw_ostream", ptr %8, i32 0, i32 5
  store i8 0, ptr %11, align 8
  %12 = getelementptr inbounds nuw %"class.llvm::raw_ostream", ptr %8, i32 0, i32 6
  %13 = load i8, ptr %5, align 1
  %14 = trunc i8 %13 to i1
  %15 = select i1 %14, i32 0, i32 1
  store i32 %15, ptr %12, align 4
  %16 = getelementptr inbounds nuw %"class.llvm::raw_ostream", ptr %8, i32 0, i32 4
  store ptr null, ptr %16, align 8
  %17 = getelementptr inbounds nuw %"class.llvm::raw_ostream", ptr %8, i32 0, i32 3
  store ptr null, ptr %17, align 8
  %18 = getelementptr inbounds nuw %"class.llvm::raw_ostream", ptr %8, i32 0, i32 2
  store ptr null, ptr %18, align 8
  ret void
}

; Function Attrs: mustprogress nounwind uwtable
define linkonce_odr hidden void @_ZN4llvm18raw_string_ostreamD2Ev(ptr noundef nonnull align 8 dereferenceable(56) %0) unnamed_addr #0 comdat align 2 {
  %2 = alloca ptr, align 8
  store ptr %0, ptr %2, align 8
  %3 = load ptr, ptr %2, align 8
  call void @_ZN4llvm11raw_ostreamD2Ev(ptr noundef nonnull align 8 dereferenceable(48) %3) #8
  ret void
}

; Function Attrs: mustprogress nounwind uwtable
define linkonce_odr hidden noundef nonnull align 8 dereferenceable(48) ptr @_ZN4llvm11raw_ostreamlsERKNSt7__cxx1112basic_stringIcSt11char_traitsIcESaIcEEE(ptr noundef nonnull align 8 dereferenceable(48) %0, ptr noundef nonnull align 8 dereferenceable(32) %1) #0 comdat align 2 {
  %3 = alloca ptr, align 8
  %4 = alloca ptr, align 8
  store ptr %0, ptr %3, align 8
  store ptr %1, ptr %4, align 8
  %5 = load ptr, ptr %3, align 8
  %6 = load ptr, ptr %4, align 8
  %7 = call noundef ptr @_ZNKSt7__cxx1112basic_stringIcSt11char_traitsIcESaIcEE4dataEv(ptr noundef nonnull align 8 dereferenceable(32) %6) #8
  %8 = load ptr, ptr %4, align 8
  %9 = call noundef i64 @_ZNKSt7__cxx1112basic_stringIcSt11char_traitsIcESaIcEE6lengthEv(ptr noundef nonnull align 8 dereferenceable(32) %8) #8
  %10 = call noundef nonnull align 8 dereferenceable(48) ptr @_ZN4llvm11raw_ostream5writeEPKcm(ptr noundef nonnull align 8 dereferenceable(48) %5, ptr noundef %7, i64 noundef %9)
  ret ptr %10
}

; Function Attrs: mustprogress nounwind uwtable
define dso_local { i64, i64 } @_ZNK5clang11LangOptions21getOpenCLVersionTupleEv(ptr noundef nonnull align 8 dereferenceable(841) %0) #0 align 2 {
  %2 = alloca %"class.llvm::VersionTuple", align 4
  %3 = alloca ptr, align 8
  %4 = alloca i32, align 4
  store ptr %0, ptr %3, align 8
  %5 = load ptr, ptr %3, align 8
  %6 = getelementptr inbounds nuw %"class.clang::LangOptionsBase", ptr %5, i32 0, i32 6
  %7 = load i64, ptr %6, align 8
  %8 = lshr i64 %7, 32
  %9 = and i64 %8, 1
  %10 = trunc i64 %9 to i32
  %11 = icmp ne i32 %10, 0
  br i1 %11, label %12, label %17

12:                                               ; preds = %1
  %13 = getelementptr inbounds nuw %"class.clang::LangOptionsBase", ptr %5, i32 0, i32 7
  %14 = load i64, ptr %13, align 8
  %15 = and i64 %14, 4294967295
  %16 = trunc i64 %15 to i32
  br label %22

17:                                               ; preds = %1
  %18 = getelementptr inbounds nuw %"class.clang::LangOptionsBase", ptr %5, i32 0, i32 6
  %19 = load i64, ptr %18, align 8
  %20 = and i64 %19, 4294967295
  %21 = trunc i64 %20 to i32
  br label %22

22:                                               ; preds = %17, %12
  %23 = phi i32 [ %16, %12 ], [ %21, %17 ]
  store i32 %23, ptr %4, align 4
  %24 = getelementptr inbounds nuw %"class.clang::LangOptionsBase", ptr %5, i32 0, i32 6
  %25 = load i64, ptr %24, align 8
  %26 = lshr i64 %25, 32
  %27 = and i64 %26, 1
  %28 = trunc i64 %27 to i32
  %29 = icmp ne i32 %28, 0
  br i1 %29, label %30, label %36

30:                                               ; preds = %22
  %31 = load i32, ptr %4, align 4
  %32 = icmp ne i32 %31, 100
  br i1 %32, label %33, label %36

33:                                               ; preds = %30
  %34 = load i32, ptr %4, align 4
  %35 = sdiv i32 %34, 100
  call void @_ZN4llvm12VersionTupleC2Ej(ptr noundef nonnull align 4 dereferenceable(16) %2, i32 noundef %35)
  br label %42

36:                                               ; preds = %30, %22
  %37 = load i32, ptr %4, align 4
  %38 = sdiv i32 %37, 100
  %39 = load i32, ptr %4, align 4
  %40 = srem i32 %39, 100
  %41 = sdiv i32 %40, 10
  call void @_ZN4llvm12VersionTupleC2Ejj(ptr noundef nonnull align 4 dereferenceable(16) %2, i32 noundef %38, i32 noundef %41)
  br label %42

42:                                               ; preds = %36, %33
  %43 = load { i64, i64 }, ptr %2, align 4
  ret { i64, i64 } %43
}

; Function Attrs: mustprogress nounwind uwtable
define linkonce_odr hidden noundef nonnull align 8 dereferenceable(48) ptr @_ZN4llvm11raw_ostreamlsEPKc(ptr noundef nonnull align 8 dereferenceable(48) %0, ptr noundef %1) #0 comdat align 2 {
  %3 = alloca ptr, align 8
  %4 = alloca ptr, align 8
  %5 = alloca %"class.llvm::StringRef", align 8
  store ptr %0, ptr %3, align 8
  store ptr %1, ptr %4, align 8
  %6 = load ptr, ptr %3, align 8
  %7 = load ptr, ptr %4, align 8
  call void @_ZN4llvm9StringRefC2EPKc(ptr noundef nonnull align 8 dereferenceable(16) %5, ptr noundef %7)
  %8 = getelementptr inbounds nuw { ptr, i64 }, ptr %5, i32 0, i32 0
  %9 = load ptr, ptr %8, align 8
  %10 = getelementptr inbounds nuw { ptr, i64 }, ptr %5, i32 0, i32 1
  %11 = load i64, ptr %10, align 8
  %12 = call noundef nonnull align 8 dereferenceable(48) ptr @_ZN4llvm11raw_ostreamlsENS_9StringRefE(ptr noundef nonnull align 8 dereferenceable(48) %6, ptr %9, i64 %11)
  ret ptr %12
}

; Function Attrs: mustprogress nounwind uwtable
define linkonce_odr hidden void @_ZN4llvm18raw_string_ostreamC2ERNSt7__cxx1112basic_stringIcSt11char_traitsIcESaIcEEE(ptr noundef nonnull align 8 dereferenceable(56) %0, ptr noundef nonnull align 8 dereferenceable(32) %1) unnamed_addr #0 comdat align 2 {
  %3 = alloca ptr, align 8
  %4 = alloca ptr, align 8
  store ptr %0, ptr %3, align 8
  store ptr %1, ptr %4, align 8
  %5 = load ptr, ptr %3, align 8
  call void @_ZN4llvm11raw_ostreamC2EbNS0_11OStreamKindE(ptr noundef nonnull align 8 dereferenceable(48) %5, i1 noundef zeroext false, i32 noundef 0)
  store ptr getelementptr inbounds inrange(-16, 104) ({ [15 x ptr] }, ptr @_ZTVN4llvm18raw_string_ostreamE, i32 0, i32 0, i32 2), ptr %5, align 8
  %6 = getelementptr inbounds nuw %"class.llvm::raw_string_ostream", ptr %5, i32 0, i32 1
  %7 = load ptr, ptr %4, align 8
  store ptr %7, ptr %6, align 8
  call void @_ZN4llvm11raw_ostream13SetUnbufferedEv(ptr noundef nonnull align 8 dereferenceable(48) %5)
  ret void
}

; Function Attrs: mustprogress nounwind uwtable
define dso_local void @_ZNK5clang11LangOptions22getOpenCLVersionStringB5cxx11Ev(ptr dead_on_unwind noalias writable sret(%"class.std::__cxx11::basic_string") align 8 %0, ptr noundef nonnull align 8 dereferenceable(841) %1) #0 align 2 {
  %3 = alloca ptr, align 8
  %4 = alloca ptr, align 8
  %5 = alloca i1, align 1
  %6 = alloca %"class.llvm::raw_string_ostream", align 8
  %7 = alloca %"class.std::__cxx11::basic_string", align 8
  %8 = alloca %"class.llvm::VersionTuple", align 4
  store ptr %0, ptr %3, align 8
  store ptr %1, ptr %4, align 8
  %9 = load ptr, ptr %4, align 8
  store i1 false, ptr %5, align 1
  call void @_ZNSt7__cxx1112basic_stringIcSt11char_traitsIcESaIcEEC1Ev(ptr noundef nonnull align 8 dereferenceable(32) %0) #8
  call void @_ZN4llvm18raw_string_ostreamC2ERNSt7__cxx1112basic_stringIcSt11char_traitsIcESaIcEEE(ptr noundef nonnull align 8 dereferenceable(56) %6, ptr noundef nonnull align 8 dereferenceable(32) %0)
  %10 = getelementptr inbounds nuw %"class.clang::LangOptionsBase", ptr %9, i32 0, i32 6
  %11 = load i64, ptr %10, align 8
  %12 = lshr i64 %11, 32
  %13 = and i64 %12, 1
  %14 = trunc i64 %13 to i32
  %15 = icmp ne i32 %14, 0
  %16 = select i1 %15, ptr @.str, ptr @.str.1
  %17 = call noundef nonnull align 8 dereferenceable(48) ptr @_ZN4llvm11raw_ostreamlsEPKc(ptr noundef nonnull align 8 dereferenceable(48) %6, ptr noundef %16)
  %18 = call noundef nonnull align 8 dereferenceable(48) ptr @_ZN4llvm11raw_ostreamlsEPKc(ptr noundef nonnull align 8 dereferenceable(48) %17, ptr noundef @.str.2)
  %19 = call { i64, i64 } @_ZNK5clang11LangOptions21getOpenCLVersionTupleEv(ptr noundef nonnull align 8 dereferenceable(841) %9)
  %20 = getelementptr inbounds nuw { i64, i64 }, ptr %8, i32 0, i32 0
  %21 = extractvalue { i64, i64 } %19, 0
  store i64 %21, ptr %20, align 4
  %22 = getelementptr inbounds nuw { i64, i64 }, ptr %8, i32 0, i32 1
  %23 = extractvalue { i64, i64 } %19, 1
  store i64 %23, ptr %22, align 4
  call void @_ZNK4llvm12VersionTuple11getAsStringB5cxx11Ev(ptr dead_on_unwind writable sret(%"class.std::__cxx11::basic_string") align 8 %7, ptr noundef nonnull align 4 dereferenceable(16) %8)
  %24 = call noundef nonnull align 8 dereferenceable(48) ptr @_ZN4llvm11raw_ostreamlsERKNSt7__cxx1112basic_stringIcSt11char_traitsIcESaIcEEE(ptr noundef nonnull align 8 dereferenceable(48) %18, ptr noundef nonnull align 8 dereferenceable(32) %7)
  call void @_ZNSt7__cxx1112basic_stringIcSt11char_traitsIcESaIcEED1Ev(ptr noundef nonnull align 8 dereferenceable(32) %7) #8
  call void @_ZN4llvm18raw_string_ostreamD2Ev(ptr noundef nonnull align 8 dereferenceable(56) %6) #8
  store i1 true, ptr %5, align 1
  %25 = load i1, ptr %5, align 1
  br i1 %25, label %27, label %26

26:                                               ; preds = %2
  call void @_ZNSt7__cxx1112basic_stringIcSt11char_traitsIcESaIcEED1Ev(ptr noundef nonnull align 8 dereferenceable(32) %0) #8
  br label %27

27:                                               ; preds = %26, %2
  ret void
}