; Function Attrs: mustprogress nounwind uwtable
define dso_local void @_ZNK5clang11LangOptions22getOpenCLVersionStringB5cxx11Ev(ptr dead_on_unwind noalias nonnull writable sret(%"class.std::__cxx11::basic_string") align 8 %0, ptr nocapture noundef nonnull readonly align 8 dereferenceable(841) %1) local_unnamed_addr #0 align 2 {
  %3 = alloca %"class.llvm::raw_string_ostream", align 8
  %4 = alloca %"class.std::__cxx11::basic_string", align 8
  %5 = alloca %"class.llvm::VersionTuple", align 8
  tail call void @_ZNSt7__cxx1112basic_stringIcSt11char_traitsIcESaIcEEC1Ev(ptr noundef nonnull align 8 dereferenceable(32) %0) #12
  %6 = getelementptr inbounds nuw i8, ptr %3, i64 8
  store i32 0, ptr %6, align 8
  %7 = getelementptr inbounds nuw i8, ptr %3, i64 40
  store i8 0, ptr %7, align 8
  %8 = getelementptr inbounds nuw i8, ptr %3, i64 44
  store i32 1, ptr %8, align 4
  %9 = getelementptr inbounds nuw i8, ptr %3, i64 16
  call void @llvm.memset.p0.i64(ptr noundef nonnull align 8 dereferenceable(24) %9, i8 0, i64 24, i1 false)
  store ptr getelementptr inbounds inrange(-16, 104) (i8, ptr @_ZTVN4llvm18raw_string_ostreamE, i64 16), ptr %3, align 8
  %10 = getelementptr inbounds nuw i8, ptr %3, i64 48
  store ptr %0, ptr %10, align 8
  call void @_ZN4llvm11raw_ostream16SetBufferAndModeEPcmNS0_10BufferKindE(ptr noundef nonnull align 8 dereferenceable(48) %3, ptr noundef null, i64 noundef 0, i32 noundef 0) #12
  %11 = getelementptr inbounds nuw i8, ptr %1, i64 48
  %12 = load i64, ptr %11, align 8
  %13 = and i64 %12, 4294967296
  %.not = icmp eq i64 %13, 0
  %14 = select i1 %.not, ptr @.str.1, ptr @.str
  %15 = select i1 %.not, i64 8, i64 14
  %16 = getelementptr inbounds nuw i8, ptr %3, i64 24
  %17 = load ptr, ptr %16, align 8
  %18 = getelementptr inbounds nuw i8, ptr %3, i64 32
  %19 = load ptr, ptr %18, align 8
  %20 = ptrtoint ptr %17 to i64
  %21 = ptrtoint ptr %19 to i64
  %22 = sub i64 %20, %21
  %23 = icmp ugt i64 %15, %22
  br i1 %23, label %24, label %26

24:                                               ; preds = %2
  %25 = call noundef nonnull align 8 dereferenceable(48) ptr @_ZN4llvm11raw_ostream5writeEPKcm(ptr noundef nonnull align 8 dereferenceable(48) %3, ptr noundef nonnull %14, i64 noundef %15) #12
  %.phi.trans.insert = getelementptr inbounds nuw i8, ptr %25, i64 32
  %.pre = load ptr, ptr %.phi.trans.insert, align 8
  br label %_ZN4llvm11raw_ostreamlsEPKc.exit

26:                                               ; preds = %2
  call void @llvm.memcpy.p0.p0.i64(ptr noundef nonnull align 1 dereferenceable(8) %19, ptr noundef nonnull align 1 dereferenceable(8) %14, i64 %15, i1 false)
  %27 = load ptr, ptr %18, align 8
  %28 = getelementptr inbounds i8, ptr %27, i64 %15
  store ptr %28, ptr %18, align 8
  br label %_ZN4llvm11raw_ostreamlsEPKc.exit

_ZN4llvm11raw_ostreamlsEPKc.exit:                 ; preds = %24, %26
  %29 = phi ptr [ %.pre, %24 ], [ %28, %26 ]
  %.0.i.i = phi ptr [ %25, %24 ], [ %3, %26 ]
  %30 = getelementptr inbounds nuw i8, ptr %.0.i.i, i64 24
  %31 = load ptr, ptr %30, align 8
  %32 = ptrtoint ptr %31 to i64
  %33 = ptrtoint ptr %29 to i64
  %34 = sub i64 %32, %33
  %35 = icmp ult i64 %34, 9
  br i1 %35, label %36, label %38

36:                                               ; preds = %_ZN4llvm11raw_ostreamlsEPKc.exit
  %37 = call noundef nonnull align 8 dereferenceable(48) ptr @_ZN4llvm11raw_ostream5writeEPKcm(ptr noundef nonnull align 8 dereferenceable(48) %.0.i.i, ptr noundef nonnull @.str.2, i64 noundef 9) #12
  br label %_ZN4llvm11raw_ostreamlsEPKc.exit4

38:                                               ; preds = %_ZN4llvm11raw_ostreamlsEPKc.exit
  %39 = getelementptr inbounds nuw i8, ptr %.0.i.i, i64 32
  call void @llvm.memcpy.p0.p0.i64(ptr noundef nonnull align 1 dereferenceable(9) %29, ptr noundef nonnull align 1 dereferenceable(9) @.str.2, i64 9, i1 false)
  %40 = load ptr, ptr %39, align 8
  %41 = getelementptr inbounds i8, ptr %40, i64 9
  store ptr %41, ptr %39, align 8
  br label %_ZN4llvm11raw_ostreamlsEPKc.exit4

_ZN4llvm11raw_ostreamlsEPKc.exit4:                ; preds = %36, %38
  %.0.i.i3 = phi ptr [ %37, %36 ], [ %.0.i.i, %38 ]
  %42 = load i64, ptr %11, align 8
  %43 = and i64 %42, 4294967296
  %.not.i = icmp eq i64 %43, 0
  %44 = getelementptr inbounds nuw i8, ptr %1, i64 56
  %45 = load i64, ptr %44, align 8
  %.in.i = select i1 %.not.i, i64 %42, i64 %45
  %46 = trunc i64 %.in.i to i32
  %47 = icmp ne i64 %43, 0
  %48 = icmp ne i32 %46, 100
  %or.cond.i = select i1 %47, i1 %48, i1 false
  %49 = sdiv i32 %46, 100
  %50 = srem i32 %46, 100
  br i1 %or.cond.i, label %51, label %53

51:                                               ; preds = %_ZN4llvm11raw_ostreamlsEPKc.exit4
  %52 = zext i32 %49 to i64
  br label %_ZNK5clang11LangOptions21getOpenCLVersionTupleEv.exit

53:                                               ; preds = %_ZN4llvm11raw_ostreamlsEPKc.exit4
  %.lhs.trunc.i = trunc nsw i32 %50 to i8
  %54 = sdiv i8 %.lhs.trunc.i, 10
  %.sext.i = sext i8 %54 to i64
  %55 = zext i32 %49 to i64
  %56 = shl nsw i64 %.sext.i, 32
  %57 = or disjoint i64 %56, %55
  %58 = or i64 %57, -9223372036854775808
  br label %_ZNK5clang11LangOptions21getOpenCLVersionTupleEv.exit

_ZNK5clang11LangOptions21getOpenCLVersionTupleEv.exit: ; preds = %51, %53
  %.sroa.0.0.i = phi i64 [ %52, %51 ], [ %58, %53 ]
  store i64 %.sroa.0.0.i, ptr %5, align 8
  %59 = getelementptr inbounds nuw i8, ptr %5, i64 8
  store i64 0, ptr %59, align 8
  call void @_ZNK4llvm12VersionTuple11getAsStringB5cxx11Ev(ptr dead_on_unwind nonnull writable sret(%"class.std::__cxx11::basic_string") align 8 %4, ptr noundef nonnull align 4 dereferenceable(16) %5) #12
  %60 = call noundef ptr @_ZNKSt7__cxx1112basic_stringIcSt11char_traitsIcESaIcEE4dataEv(ptr noundef nonnull align 8 dereferenceable(32) %4) #12
  %61 = call noundef i64 @_ZNKSt7__cxx1112basic_stringIcSt11char_traitsIcESaIcEE6lengthEv(ptr noundef nonnull align 8 dereferenceable(32) %4) #12
  %62 = call noundef nonnull align 8 dereferenceable(48) ptr @_ZN4llvm11raw_ostream5writeEPKcm(ptr noundef nonnull align 8 dereferenceable(48) %.0.i.i3, ptr noundef %60, i64 noundef %61) #12
  call void @_ZNSt7__cxx1112basic_stringIcSt11char_traitsIcESaIcEED1Ev(ptr noundef nonnull align 8 dereferenceable(32) %4) #12
  call void @_ZN4llvm11raw_ostreamD2Ev(ptr noundef nonnull align 8 dereferenceable(48) %3) #12
  ret void
}